target datalayout = "e-m:e-p270:32:32-p271:32:32-p272:64:64-i64:64-i128:128-f80:128-n8:16:32:64-S128"
target triple = "x86_64-unknown-linux-gnu"

; Function Attrs: mustprogress uwtable
define noundef ptr @_ZN7Imf_3_29DeepImage8newLevelEiiRKN9Imath_3_23BoxINS1_4Vec2IiEEEE(ptr noundef nonnull align 8 dereferenceable(104) %this, i32 noundef %lx, i32 noundef %ly, ptr noundef nonnull align 4 dereferenceable(16) %dataWindow) unnamed_addr #4 align 2 personality ptr @__gxx_personality_v0 {
entry:
  %this.addr = alloca ptr, align 8
  %lx.addr = alloca i32, align 4
  %ly.addr = alloca i32, align 4
  %dataWindow.addr = alloca ptr, align 8
  %exn.slot = alloca ptr, align 8
  %ehselector.slot = alloca i32, align 4
  store ptr %this, ptr %this.addr, align 8
  store i32 %lx, ptr %lx.addr, align 4
  store i32 %ly, ptr %ly.addr, align 4
  store ptr %dataWindow, ptr %dataWindow.addr, align 8
  %this1 = load ptr, ptr %this.addr, align 8
  %call = call noalias noundef nonnull ptr @_Znwm(i64 noundef 192) #9
  %0 = load i32, ptr %lx.addr, align 4
  %1 = load i32, ptr %ly.addr, align 4
  %2 = load ptr, ptr %dataWindow.addr, align 8
  invoke void @_ZN7Imf_3_214DeepImageLevelC1ERNS_9DeepImageEiiRKN9Imath_3_23BoxINS3_4Vec2IiEEEE(ptr noundef nonnull align 8 dereferenceable(192) %call, ptr noundef nonnull align 8 dereferenceable(104) %this1, i32 noundef %0, i32 noundef %1, ptr noundef nonnull align 4 dereferenceable(16) %2)
          to label %invoke.cont unwind label %lpad

invoke.cont:                                      ; preds = %entry
  ret ptr %call

lpad:                                             ; preds = %entry
  %3 = landingpad { ptr, i32 }
          cleanup
  %4 = extractvalue { ptr, i32 } %3, 0
  store ptr %4, ptr %exn.slot, align 8
  %5 = extractvalue { ptr, i32 } %3, 1
  store i32 %5, ptr %ehselector.slot, align 4
  call void @_ZdlPv(ptr noundef %call) #8
  br label %eh.resume

eh.resume:                                        ; preds = %lpad
  %exn = load ptr, ptr %exn.slot, align 8
  %sel = load i32, ptr %ehselector.slot, align 4
  %lpad.val = insertvalue { ptr, i32 } poison, ptr %exn, 0
  %lpad.val2 = insertvalue { ptr, i32 } %lpad.val, i32 %sel, 1
  resume { ptr, i32 } %lpad.val2
}