; Function Attrs: mustprogress uwtable
define noundef nonnull ptr @_ZN7Imf_3_29DeepImage8newLevelEiiRKN9Imath_3_23BoxINS1_4Vec2IiEEEE(ptr noundef nonnull align 8 dereferenceable(104) %this, i32 noundef %lx, i32 noundef %ly, ptr noundef nonnull align 4 dereferenceable(16) %dataWindow) unnamed_addr #3 align 2 personality ptr @__gxx_personality_v0 {
entry:
  %call = tail call noalias noundef nonnull dereferenceable(192) ptr @_Znwm(i64 noundef 192) #10
  invoke void @_ZN7Imf_3_214DeepImageLevelC1ERNS_9DeepImageEiiRKN9Imath_3_23BoxINS3_4Vec2IiEEEE(ptr noundef nonnull align 8 dereferenceable(192) %call, ptr noundef nonnull align 8 dereferenceable(104) %this, i32 noundef %lx, i32 noundef %ly, ptr noundef nonnull align 4 dereferenceable(16) %dataWindow)
          to label %invoke.cont unwind label %lpad

invoke.cont:                                      ; preds = %entry
  ret ptr %call

lpad:                                             ; preds = %entry
  %0 = landingpad { ptr, i32 }
          cleanup
  tail call void @_ZdlPv(ptr noundef nonnull %call) #9
  resume { ptr, i32 } %0
}